; Function Attrs: mustprogress nounwind uwtable
define dso_local noundef i32 @_ZN4llvm9DwarfFile20computeSizeAndOffsetERNS_3DIEEj(ptr noundef nonnull align 8 dereferenceable(456) %0, ptr noundef nonnull align 8 dereferenceable(48) %1, i32 noundef %2) local_unnamed_addr #0 align 2 {
  %4 = alloca %"struct.llvm::dwarf::FormParams", align 8
  %5 = load ptr, ptr %0, align 8
  %6 = tail call i48 @_ZNK4llvm10AsmPrinter18getDwarfFormParamsEv(ptr noundef nonnull align 8 dereferenceable(785) %5) #13
  %7 = trunc i48 %6 to i40
  store i40 %7, ptr %4, align 8
  %8 = getelementptr inbounds nuw i8, ptr %0, i64 104
  %9 = call noundef i32 @_ZN4llvm3DIE24computeOffsetsAndAbbrevsERKNS_5dwarf10FormParamsERNS_12DIEAbbrevSetEj(ptr noundef nonnull align 8 dereferenceable(48) %1, ptr noundef nonnull align 2 dereferenceable(5) %4, ptr noundef nonnull align 8 dereferenceable(48) %8, i32 noundef %2) #13
  ret i32 %9
}